target datalayout = "e-m:e-p270:32:32-p271:32:32-p272:64:64-i64:64-i128:128-f80:128-n8:16:32:64-S128"
target triple = "x86_64-pc-linux-gnu"

%struct.ASN1_ITEM_st = type { i8, i64, ptr, i64, ptr, i64, ptr }

; Function Attrs: nounwind uwtable
define internal i32 @num_bits_ulong(i64 noundef %0) #0 {
  %2 = alloca i64, align 8
  %3 = alloca i64, align 8
  %4 = alloca i64, align 8
  store i64 %0, ptr %2, align 8, !tbaa !14
  call void @llvm.lifetime.start.p0(i64 8, ptr %3) #4
  call void @llvm.lifetime.start.p0(i64 8, ptr %4) #4
  store i64 0, ptr %4, align 8, !tbaa !14
  store i64 0, ptr %3, align 8, !tbaa !14
  br label %5

5:                                                ; preds = %17, %1
  %6 = load i64, ptr %3, align 8, !tbaa !14
  %7 = icmp ult i64 %6, 64
  br i1 %7, label %8, label %20

8:                                                ; preds = %5
  %9 = load i64, ptr %2, align 8, !tbaa !14
  %10 = icmp ne i64 %9, 0
  %11 = zext i1 %10 to i32
  %12 = sext i32 %11 to i64
  %13 = load i64, ptr %4, align 8, !tbaa !14
  %14 = add i64 %13, %12
  store i64 %14, ptr %4, align 8, !tbaa !14
  %15 = load i64, ptr %2, align 8, !tbaa !14
  %16 = lshr i64 %15, 1
  store i64 %16, ptr %2, align 8, !tbaa !14
  br label %17

17:                                               ; preds = %8
  %18 = load i64, ptr %3, align 8, !tbaa !14
  %19 = add i64 %18, 1
  store i64 %19, ptr %3, align 8, !tbaa !14
  br label %5, !llvm.loop !29

20:                                               ; preds = %5
  %21 = load i64, ptr %4, align 8, !tbaa !14
  %22 = trunc i64 %21 to i32
  call void @llvm.lifetime.end.p0(i64 8, ptr %4) #4
  call void @llvm.lifetime.end.p0(i64 8, ptr %3) #4
  ret i32 %22
}

; Function Attrs: nounwind uwtable
define internal i32 @long_i2c(ptr noundef %0, ptr noundef %1, ptr noundef %2, ptr noundef %3) #0 {
  %5 = alloca i32, align 4
  %6 = alloca ptr, align 8
  %7 = alloca ptr, align 8
  %8 = alloca ptr, align 8
  %9 = alloca ptr, align 8
  %10 = alloca i64, align 8
  %11 = alloca i64, align 8
  %12 = alloca i64, align 8
  %13 = alloca i32, align 4
  %14 = alloca i32, align 4
  %15 = alloca i32, align 4
  %16 = alloca i32, align 4
  store ptr %0, ptr %6, align 8, !tbaa !3
  store ptr %1, ptr %7, align 8, !tbaa !10
  store ptr %2, ptr %8, align 8, !tbaa !22
  store ptr %3, ptr %9, align 8, !tbaa !8
  call void @llvm.lifetime.start.p0(i64 8, ptr %10) #4
  call void @llvm.lifetime.start.p0(i64 8, ptr %11) #4
  call void @llvm.lifetime.start.p0(i64 8, ptr %12) #4
  call void @llvm.lifetime.start.p0(i64 4, ptr %13) #4
  call void @llvm.lifetime.start.p0(i64 4, ptr %14) #4
  call void @llvm.lifetime.start.p0(i64 4, ptr %15) #4
  %17 = load ptr, ptr %6, align 8, !tbaa !3
  call void @llvm.memcpy.p0.p0.i64(ptr align 8 %10, ptr align 8 %17, i64 8, i1 false)
  %18 = load i64, ptr %10, align 8, !tbaa !14
  %19 = load ptr, ptr %9, align 8, !tbaa !8
  %20 = getelementptr inbounds nuw %struct.ASN1_ITEM_st, ptr %19, i32 0, i32 5
  %21 = load i64, ptr %20, align 8, !tbaa !19
  %22 = icmp eq i64 %18, %21
  br i1 %22, label %23, label %24

23:                                               ; preds = %4
  store i32 -1, ptr %5, align 4
  store i32 1, ptr %16, align 4
  br label %80

24:                                               ; preds = %4
  %25 = load i64, ptr %10, align 8, !tbaa !14
  %26 = icmp slt i64 %25, 0
  br i1 %26, label %27, label %31

27:                                               ; preds = %24
  store i64 255, ptr %12, align 8, !tbaa !14
  %28 = load i64, ptr %10, align 8, !tbaa !14
  %29 = sub i64 0, %28
  %30 = sub i64 %29, 1
  store i64 %30, ptr %11, align 8, !tbaa !14
  br label %33

31:                                               ; preds = %24
  store i64 0, ptr %12, align 8, !tbaa !14
  %32 = load i64, ptr %10, align 8, !tbaa !14
  store i64 %32, ptr %11, align 8, !tbaa !14
  br label %33

33:                                               ; preds = %31, %27
  %34 = load i64, ptr %11, align 8, !tbaa !14
  %35 = call i32 @num_bits_ulong(i64 noundef %34)
  store i32 %35, ptr %13, align 4, !tbaa !12
  %36 = load i32, ptr %13, align 4, !tbaa !12
  %37 = and i32 %36, 7
  %38 = icmp ne i32 %37, 0
  br i1 %38, label %40, label %39

39:                                               ; preds = %33
  store i32 1, ptr %14, align 4, !tbaa !12
  br label %41

40:                                               ; preds = %33
  store i32 0, ptr %14, align 4, !tbaa !12
  br label %41

41:                                               ; preds = %40, %39
  %42 = load i32, ptr %13, align 4, !tbaa !12
  %43 = add nsw i32 %42, 7
  %44 = ashr i32 %43, 3
  store i32 %44, ptr %13, align 4, !tbaa !12
  %45 = load ptr, ptr %7, align 8, !tbaa !10
  %46 = icmp ne ptr %45, null
  br i1 %46, label %47, label %76

47:                                               ; preds = %41
  %48 = load i32, ptr %14, align 4, !tbaa !12
  %49 = icmp ne i32 %48, 0
  br i1 %49, label %50, label %55

50:                                               ; preds = %47
  %51 = load i64, ptr %12, align 8, !tbaa !14
  %52 = trunc i64 %51 to i8
  %53 = load ptr, ptr %7, align 8, !tbaa !10
  %54 = getelementptr inbounds nuw i8, ptr %53, i32 1
  store ptr %54, ptr %7, align 8, !tbaa !10
  store i8 %52, ptr %53, align 1, !tbaa !16
  br label %55

55:                                               ; preds = %50, %47
  %56 = load i32, ptr %13, align 4, !tbaa !12
  %57 = sub nsw i32 %56, 1
  store i32 %57, ptr %15, align 4, !tbaa !12
  br label %58

58:                                               ; preds = %72, %55
  %59 = load i32, ptr %15, align 4, !tbaa !12
  %60 = icmp sge i32 %59, 0
  br i1 %60, label %61, label %75

61:                                               ; preds = %58
  %62 = load i64, ptr %11, align 8, !tbaa !14
  %63 = load i64, ptr %12, align 8, !tbaa !14
  %64 = xor i64 %62, %63
  %65 = trunc i64 %64 to i8
  %66 = load ptr, ptr %7, align 8, !tbaa !10
  %67 = load i32, ptr %15, align 4, !tbaa !12
  %68 = sext i32 %67 to i64
  %69 = getelementptr inbounds i8, ptr %66, i64 %68
  store i8 %65, ptr %69, align 1, !tbaa !16
  %70 = load i64, ptr %11, align 8, !tbaa !14
  %71 = lshr i64 %70, 8
  store i64 %71, ptr %11, align 8, !tbaa !14
  br label %72

72:                                               ; preds = %61
  %73 = load i32, ptr %15, align 4, !tbaa !12
  %74 = add nsw i32 %73, -1
  store i32 %74, ptr %15, align 4, !tbaa !12
  br label %58, !llvm.loop !24

75:                                               ; preds = %58
  br label %76

76:                                               ; preds = %75, %41
  %77 = load i32, ptr %13, align 4, !tbaa !12
  %78 = load i32, ptr %14, align 4, !tbaa !12
  %79 = add nsw i32 %77, %78
  store i32 %79, ptr %5, align 4
  store i32 1, ptr %16, align 4
  br label %80

80:                                               ; preds = %76, %23
  call void @llvm.lifetime.end.p0(i64 4, ptr %15) #4
  call void @llvm.lifetime.end.p0(i64 4, ptr %14) #4
  call void @llvm.lifetime.end.p0(i64 4, ptr %13) #4
  call void @llvm.lifetime.end.p0(i64 8, ptr %12) #4
  call void @llvm.lifetime.end.p0(i64 8, ptr %11) #4
  call void @llvm.lifetime.end.p0(i64 8, ptr %10) #4
  %81 = load i32, ptr %5, align 4
  ret i32 %81
}