; Function Attrs: nofree norecurse nosync nounwind memory(argmem: readwrite) uwtable
define internal range(i32 -268435456, 268435457) i32 @long_i2c(ptr noundef readonly captures(none) %0, ptr noundef writeonly captures(address_is_null) %1, ptr readnone captures(none) %2, ptr noundef readonly captures(none) %3) #3 {
  %.0.copyload = load i64, ptr %0, align 8
  %5 = getelementptr inbounds nuw i8, ptr %3, i64 40
  %6 = load i64, ptr %5, align 8, !tbaa !8
  %7 = icmp eq i64 %.0.copyload, %6
  br i1 %7, label %32, label %8

8:                                                ; preds = %4
  %.0.copyload.lobit = ashr i64 %.0.copyload, 63
  %.025 = xor i64 %.0.copyload.lobit, %.0.copyload
  br label %9

9:                                                ; preds = %9, %8
  %.010.i = phi i32 [ 0, %8 ], [ %12, %9 ]
  %.069.i = phi i64 [ 0, %8 ], [ %14, %9 ]
  %.078.i = phi i64 [ %.025, %8 ], [ %13, %9 ]
  %10 = icmp ne i64 %.078.i, 0
  %11 = zext i1 %10 to i32
  %12 = add i32 %.010.i, %11
  %13 = lshr i64 %.078.i, 1
  %14 = add nuw nsw i64 %.069.i, 1
  %exitcond.not.i = icmp eq i64 %14, 64
  br i1 %exitcond.not.i, label %num_bits_ulong.exit, label %9, !llvm.loop !14

num_bits_ulong.exit:                              ; preds = %9
  %15 = icmp slt i64 %.0.copyload, 0
  %.024 = select i1 %15, i64 255, i64 0
  %16 = and i32 %12, 7
  %.not.not = icmp eq i32 %16, 0
  %.023 = zext i1 %.not.not to i32
  %17 = add nsw i32 %12, 7
  %18 = ashr i32 %17, 3
  %.not29 = icmp eq ptr %1, null
  br i1 %.not29, label %.loopexit, label %19

19:                                               ; preds = %num_bits_ulong.exit
  br i1 %.not.not, label %20, label %23

20:                                               ; preds = %19
  %21 = trunc nuw i64 %.024 to i8
  %22 = getelementptr inbounds nuw i8, ptr %1, i64 1
  store i8 %21, ptr %1, align 1, !tbaa !3
  br label %23

23:                                               ; preds = %20, %19
  %.027 = phi ptr [ %22, %20 ], [ %1, %19 ]
  %24 = icmp sgt i32 %18, 0
  br i1 %24, label %.lr.ph.preheader, label %.loopexit

.lr.ph.preheader:                                 ; preds = %23
  %25 = zext nneg i32 %18 to i64
  br label %.lr.ph

.lr.ph:                                           ; preds = %.lr.ph.preheader, %.lr.ph
  %indvars.iv = phi i64 [ %25, %.lr.ph.preheader ], [ %indvars.iv.next, %.lr.ph ]
  %.131 = phi i64 [ %.025, %.lr.ph.preheader ], [ %29, %.lr.ph ]
  %indvars.iv.next = add nsw i64 %indvars.iv, -1
  %26 = xor i64 %.131, %.024
  %27 = trunc i64 %26 to i8
  %28 = getelementptr inbounds nuw i8, ptr %.027, i64 %indvars.iv.next
  store i8 %27, ptr %28, align 1, !tbaa !3
  %29 = lshr i64 %.131, 8
  %30 = icmp samesign ugt i64 %indvars.iv, 1
  br i1 %30, label %.lr.ph, label %.loopexit, !llvm.loop !15

.loopexit:                                        ; preds = %.lr.ph, %23, %num_bits_ulong.exit
  %31 = add nsw i32 %18, %.023
  br label %32

32:                                               ; preds = %4, %.loopexit
  %.026 = phi i32 [ %31, %.loopexit ], [ -1, %4 ]
  ret i32 %.026
}